; Function Attrs: mustprogress uwtable
define void @_ZN5boost10filesystem6detail6statusERKNS0_4pathEPNS_6system10error_codeE(ptr dead_on_unwind noalias nocapture writable writeonly sret(%"class.boost::filesystem::file_status") align 4 %0, ptr noundef nonnull align 8 dereferenceable(32) %1, ptr noundef %2) local_unnamed_addr #5 {
  %.not = icmp eq ptr %2, null
  br i1 %.not, label %.split, label %.split5

.split5:                                          ; preds = %3
  tail call void @llvm.memset.p0.i64(ptr noundef nonnull align 8 dereferenceable(24) %2, i8 0, i64 24, i1 false)
  br label %.split

.split:                                           ; preds = %3, %.split5
  %.sink = phi ptr [ %2, %.split5 ], [ null, %3 ]
  tail call void @_ZN5boost10filesystem6detail11status_implERKNS0_4pathEPNS_6system10error_codeEi(ptr dead_on_unwind writable sret(%"class.boost::filesystem::file_status") align 4 %0, ptr noundef nonnull align 8 dereferenceable(32) %1, ptr noundef %.sink, i32 noundef -100)
  ret void
}